; Function Attrs: nounwind uwtable
define noalias noundef nonnull ptr @l_Lean_Compiler_LCNF_PullLetDecls_pullDecls___lambda__2(ptr noundef %0, ptr noundef %1, ptr noundef %2, ptr noundef %3, ptr noundef %4, ptr noundef %5, ptr readnone captures(none) %6, ptr readnone captures(none) %7, ptr readnone captures(none) %8, ptr readnone captures(none) %9, ptr readnone captures(none) %10, ptr readnone captures(none) %11, ptr noundef %12) local_unnamed_addr #0 {
  %.not = icmp eq ptr %0, %5
  br i1 %.not, label %40, label %14

14:                                               ; preds = %13
  %15 = ptrtoint ptr %4 to i64
  %16 = and i64 %15, 1
  %.not49 = icmp eq i64 %16, 0
  br i1 %.not49, label %17, label %lean_dec.exit33

17:                                               ; preds = %14
  %18 = load i32, ptr %4, align 4, !tbaa !4
  %19 = icmp sgt i32 %18, 1
  br i1 %19, label %20, label %22, !prof !11

20:                                               ; preds = %17
  %21 = add nsw i32 %18, -1
  store i32 %21, ptr %4, align 4, !tbaa !4
  br label %lean_dec.exit33

22:                                               ; preds = %17
  %.not.i = icmp eq i32 %18, 0
  br i1 %.not.i, label %lean_dec.exit33, label %23

23:                                               ; preds = %22
  tail call void @lean_dec_ref_cold(ptr noundef nonnull %4) #4
  br label %lean_dec.exit33

lean_dec.exit33:                                  ; preds = %23, %22, %20, %14
  tail call void @lean_inc_heartbeat() #4
  %24 = tail call noalias ptr @mi_malloc_small(i64 noundef 40) #4
  %25 = icmp eq ptr %24, null
  br i1 %25, label %26, label %lean_alloc_ctor.exit

26:                                               ; preds = %lean_dec.exit33
  tail call void @lean_internal_panic_out_of_memory() #5
  unreachable

lean_alloc_ctor.exit:                             ; preds = %lean_dec.exit33
  %27 = getelementptr inbounds nuw i8, ptr %24, i64 4
  store i32 1, ptr %24, align 4, !tbaa !4
  store i32 262184, ptr %27, align 4
  %28 = getelementptr inbounds nuw i8, ptr %24, i64 8
  store ptr %1, ptr %28, align 8, !tbaa !9
  %29 = getelementptr inbounds nuw i8, ptr %24, i64 16
  store ptr %2, ptr %29, align 8, !tbaa !9
  %30 = getelementptr inbounds nuw i8, ptr %24, i64 24
  store ptr %3, ptr %30, align 8, !tbaa !9
  %31 = getelementptr inbounds nuw i8, ptr %24, i64 32
  store ptr %5, ptr %31, align 8, !tbaa !9
  tail call void @lean_inc_heartbeat() #4
  %32 = tail call noalias ptr @mi_malloc_small(i64 noundef 16) #4
  %33 = icmp eq ptr %32, null
  br i1 %33, label %34, label %lean_alloc_ctor.exit42

34:                                               ; preds = %lean_alloc_ctor.exit
  tail call void @lean_internal_panic_out_of_memory() #5
  unreachable

lean_alloc_ctor.exit42:                           ; preds = %lean_alloc_ctor.exit
  %35 = getelementptr inbounds nuw i8, ptr %32, i64 4
  store i32 1, ptr %32, align 4, !tbaa !4
  store i32 67174416, ptr %35, align 4
  %36 = getelementptr inbounds nuw i8, ptr %32, i64 8
  store ptr %24, ptr %36, align 8, !tbaa !9
  tail call void @lean_inc_heartbeat() #4
  %37 = tail call noalias ptr @mi_malloc_small(i64 noundef 24) #4
  %38 = icmp eq ptr %37, null
  br i1 %38, label %39, label %lean_alloc_ctor.exit43

39:                                               ; preds = %lean_alloc_ctor.exit42
  tail call void @lean_internal_panic_out_of_memory() #5
  unreachable

40:                                               ; preds = %13
  %41 = ptrtoint ptr %0 to i64
  %42 = and i64 %41, 1
  %.not45 = icmp eq i64 %42, 0
  br i1 %.not45, label %43, label %lean_dec.exit32

43:                                               ; preds = %40
  %44 = load i32, ptr %5, align 4, !tbaa !4
  %45 = icmp sgt i32 %44, 1
  br i1 %45, label %46, label %48, !prof !11

46:                                               ; preds = %43
  %47 = add nsw i32 %44, -1
  store i32 %47, ptr %5, align 4, !tbaa !4
  br label %lean_dec.exit32

48:                                               ; preds = %43
  %.not.i34 = icmp eq i32 %44, 0
  br i1 %.not.i34, label %lean_dec.exit32, label %49

49:                                               ; preds = %48
  tail call void @lean_dec_ref_cold(ptr noundef nonnull %5) #4
  br label %lean_dec.exit32

lean_dec.exit32:                                  ; preds = %49, %48, %46, %40
  %50 = ptrtoint ptr %3 to i64
  %51 = and i64 %50, 1
  %.not46 = icmp eq i64 %51, 0
  br i1 %.not46, label %52, label %lean_dec.exit31

52:                                               ; preds = %lean_dec.exit32
  %53 = load i32, ptr %3, align 4, !tbaa !4
  %54 = icmp sgt i32 %53, 1
  br i1 %54, label %55, label %57, !prof !11

55:                                               ; preds = %52
  %56 = add nsw i32 %53, -1
  store i32 %56, ptr %3, align 4, !tbaa !4
  br label %lean_dec.exit31

57:                                               ; preds = %52
  %.not.i36 = icmp eq i32 %53, 0
  br i1 %.not.i36, label %lean_dec.exit31, label %58

58:                                               ; preds = %57
  tail call void @lean_dec_ref_cold(ptr noundef nonnull %3) #4
  br label %lean_dec.exit31

lean_dec.exit31:                                  ; preds = %58, %57, %55, %lean_dec.exit32
  %59 = ptrtoint ptr %2 to i64
  %60 = and i64 %59, 1
  %.not47 = icmp eq i64 %60, 0
  br i1 %.not47, label %61, label %lean_dec.exit30

61:                                               ; preds = %lean_dec.exit31
  %62 = load i32, ptr %2, align 4, !tbaa !4
  %63 = icmp sgt i32 %62, 1
  br i1 %63, label %64, label %66, !prof !11

64:                                               ; preds = %61
  %65 = add nsw i32 %62, -1
  store i32 %65, ptr %2, align 4, !tbaa !4
  br label %lean_dec.exit30

66:                                               ; preds = %61
  %.not.i38 = icmp eq i32 %62, 0
  br i1 %.not.i38, label %lean_dec.exit30, label %67

67:                                               ; preds = %66
  tail call void @lean_dec_ref_cold(ptr noundef nonnull %2) #4
  br label %lean_dec.exit30

lean_dec.exit30:                                  ; preds = %67, %66, %64, %lean_dec.exit31
  %68 = ptrtoint ptr %1 to i64
  %69 = and i64 %68, 1
  %.not48 = icmp eq i64 %69, 0
  br i1 %.not48, label %70, label %lean_dec.exit

70:                                               ; preds = %lean_dec.exit30
  %71 = load i32, ptr %1, align 4, !tbaa !4
  %72 = icmp sgt i32 %71, 1
  br i1 %72, label %73, label %75, !prof !11

73:                                               ; preds = %70
  %74 = add nsw i32 %71, -1
  store i32 %74, ptr %1, align 4, !tbaa !4
  br label %lean_dec.exit

75:                                               ; preds = %70
  %.not.i40 = icmp eq i32 %71, 0
  br i1 %.not.i40, label %lean_dec.exit, label %76

76:                                               ; preds = %75
  tail call void @lean_dec_ref_cold(ptr noundef nonnull %1) #4
  br label %lean_dec.exit

lean_dec.exit:                                    ; preds = %76, %75, %73, %lean_dec.exit30
  tail call void @lean_inc_heartbeat() #4
  %77 = tail call noalias ptr @mi_malloc_small(i64 noundef 24) #4
  %78 = icmp eq ptr %77, null
  br i1 %78, label %79, label %lean_alloc_ctor.exit43

79:                                               ; preds = %lean_dec.exit
  tail call void @lean_internal_panic_out_of_memory() #5
  unreachable

lean_alloc_ctor.exit43:                           ; preds = %lean_dec.exit, %lean_alloc_ctor.exit42
  %.sink55 = phi ptr [ %37, %lean_alloc_ctor.exit42 ], [ %77, %lean_dec.exit ]
  %.sink = phi ptr [ %32, %lean_alloc_ctor.exit42 ], [ %4, %lean_dec.exit ]
  %80 = getelementptr inbounds nuw i8, ptr %.sink55, i64 4
  store i32 1, ptr %.sink55, align 4, !tbaa !4
  store i32 131096, ptr %80, align 4
  %81 = getelementptr inbounds nuw i8, ptr %.sink55, i64 8
  store ptr %.sink, ptr %81, align 8, !tbaa !9
  %82 = getelementptr inbounds nuw i8, ptr %.sink55, i64 16
  store ptr %12, ptr %82, align 8, !tbaa !9
  ret ptr %.sink55
}